target datalayout = "e-m:e-p270:32:32-p271:32:32-p272:64:64-i64:64-i128:128-f80:128-n8:16:32:64-S128"
target triple = "x86_64-pc-linux-gnu"

%struct.aiUVTransform = type { %class.aiVector2t, %class.aiVector2t, float }
%class.aiVector2t = type { float, float }
%"struct.Assimp::STransformVecInfo" = type { %struct.aiUVTransform, i32, i32, i32, i32, %"class.std::__cxx11::list" }
%"class.std::__cxx11::list" = type { %"class.std::__cxx11::_List_base" }
%"class.std::__cxx11::_List_base" = type { %"struct.std::__cxx11::_List_base<Assimp::TTUpdateInfo, std::allocator<Assimp::TTUpdateInfo>>::_List_impl" }
%"struct.std::__cxx11::_List_base<Assimp::TTUpdateInfo, std::allocator<Assimp::TTUpdateInfo>>::_List_impl" = type { %"struct.std::__detail::_List_node_header" }
%"struct.std::__detail::_List_node_header" = type { %"struct.std::__detail::_List_node_base", i64 }
%"struct.std::__detail::_List_node_base" = type { ptr, ptr }

@.str.1 = private unnamed_addr constant [29 x i8] c"Texture coordinate rotation \00", align 1
@.str.2 = private unnamed_addr constant [23 x i8] c" can be simplified to \00", align 1
@.str.3 = private unnamed_addr constant [43 x i8] c"[w] UV U offset %f can be simplified to %f\00", align 1
@.str.4 = private unnamed_addr constant [45 x i8] c"[m/d] UV U offset %f can be simplified to %f\00", align 1
@.str.5 = private unnamed_addr constant [42 x i8] c"[c] UV U offset %f can be clamped to 1.0f\00", align 1
@.str.6 = private unnamed_addr constant [43 x i8] c"[w] UV V offset %f can be simplified to %f\00", align 1
@.str.7 = private unnamed_addr constant [45 x i8] c"[m/d] UV V offset %f can be simplified to %f\00", align 1
@.str.8 = private unnamed_addr constant [42 x i8] c"[c] UV V offset %f can be clamped to 1.0f\00", align 1

; Function Attrs: mustprogress uwtable
define hidden void @_ZN6Assimp20TextureTransformStep21PreProcessUVTransformERNS_17STransformVecInfoE(ptr noundef nonnull align 8 dereferenceable(28) %0, ptr noundef nonnull align 8 dereferenceable(64) %1) #2 align 2 {
  %3 = alloca ptr, align 8
  %4 = alloca ptr, align 8
  %5 = alloca i32, align 4
  %6 = alloca [512 x i8], align 16
  %7 = alloca float, align 4
  %8 = alloca i32, align 4
  %9 = alloca float, align 4
  %10 = alloca float, align 4
  store ptr %0, ptr %3, align 8
  store ptr %1, ptr %4, align 8
  call void @llvm.lifetime.start.p0(i64 4, ptr %5) #18
  call void @llvm.lifetime.start.p0(i64 512, ptr %6) #18
  call void @llvm.memset.p0.i64(ptr align 16 %6, i8 0, i64 512, i1 false)
  %11 = load ptr, ptr %4, align 8
  %12 = getelementptr inbounds nuw %struct.aiUVTransform, ptr %11, i32 0, i32 2
  %13 = load float, ptr %12, align 8
  %14 = fcmp une float %13, 0.000000e+00
  br i1 %14, label %15, label %45

15:                                               ; preds = %2
  call void @llvm.lifetime.start.p0(i64 4, ptr %7) #18
  %16 = load ptr, ptr %4, align 8
  %17 = getelementptr inbounds nuw %struct.aiUVTransform, ptr %16, i32 0, i32 2
  %18 = load float, ptr %17, align 8
  store float %18, ptr %7, align 4
  %19 = load ptr, ptr %4, align 8
  %20 = getelementptr inbounds nuw %struct.aiUVTransform, ptr %19, i32 0, i32 2
  %21 = load float, ptr %20, align 8
  %22 = fdiv float %21, 0x401921FB60000000
  %23 = fptosi float %22 to i32
  store i32 %23, ptr %5, align 4
  %24 = load i32, ptr %5, align 4
  %25 = icmp ne i32 %24, 0
  br i1 %25, label %26, label %35

26:                                               ; preds = %15
  %27 = load i32, ptr %5, align 4
  %28 = sitofp i32 %27 to float
  %29 = load float, ptr %7, align 4
  %30 = fneg float %28
  %31 = call float @llvm.fmuladd.f32(float %30, float 0x400921FB60000000, float %29)
  store float %31, ptr %7, align 4
  %32 = call noundef ptr @_ZN6Assimp13DefaultLogger3getEv()
  %33 = load ptr, ptr %4, align 8
  %34 = getelementptr inbounds nuw %struct.aiUVTransform, ptr %33, i32 0, i32 2
  call void @_ZN6Assimp6Logger4infoIJRA29_KcRfRA23_S2_S5_EEEvDpOT_(ptr noundef nonnull align 8 dereferenceable(12) %32, ptr noundef nonnull align 1 dereferenceable(29) @.str.1, ptr noundef nonnull align 4 dereferenceable(4) %34, ptr noundef nonnull align 1 dereferenceable(23) @.str.2, ptr noundef nonnull align 4 dereferenceable(4) %7)
  br label %35

35:                                               ; preds = %26, %15
  %36 = load float, ptr %7, align 4
  %37 = fcmp olt float %36, 0.000000e+00
  br i1 %37, label %38, label %41

38:                                               ; preds = %35
  %39 = load float, ptr %7, align 4
  %40 = fadd float 0x402921FB60000000, %39
  store float %40, ptr %7, align 4
  br label %41

41:                                               ; preds = %38, %35
  %42 = load float, ptr %7, align 4
  %43 = load ptr, ptr %4, align 8
  %44 = getelementptr inbounds nuw %struct.aiUVTransform, ptr %43, i32 0, i32 2
  store float %42, ptr %44, align 8
  store i32 1, ptr %8, align 4
  call void @llvm.lifetime.end.p0(i64 4, ptr %7) #18
  br label %234

45:                                               ; preds = %2
  %46 = load ptr, ptr %4, align 8
  %47 = getelementptr inbounds nuw %struct.aiUVTransform, ptr %46, i32 0, i32 0
  %48 = getelementptr inbounds nuw %class.aiVector2t, ptr %47, i32 0, i32 0
  %49 = load float, ptr %48, align 8
  %50 = fptosi float %49 to i32
  store i32 %50, ptr %5, align 4
  %51 = load i32, ptr %5, align 4
  %52 = icmp ne i32 %51, 0
  br i1 %52, label %53, label %139

53:                                               ; preds = %45
  call void @llvm.lifetime.start.p0(i64 4, ptr %9) #18
  store float 0.000000e+00, ptr %9, align 4
  %54 = getelementptr inbounds [512 x i8], ptr %6, i64 0, i64 0
  store i8 0, ptr %54, align 16
  %55 = load ptr, ptr %4, align 8
  %56 = getelementptr inbounds nuw %"struct.Assimp::STransformVecInfo", ptr %55, i32 0, i32 2
  %57 = load i32, ptr %56, align 8
  %58 = icmp eq i32 0, %57
  br i1 %58, label %59, label %76

59:                                               ; preds = %53
  %60 = load ptr, ptr %4, align 8
  %61 = getelementptr inbounds nuw %struct.aiUVTransform, ptr %60, i32 0, i32 0
  %62 = getelementptr inbounds nuw %class.aiVector2t, ptr %61, i32 0, i32 0
  %63 = load float, ptr %62, align 8
  %64 = load i32, ptr %5, align 4
  %65 = sitofp i32 %64 to float
  %66 = fsub float %63, %65
  store float %66, ptr %9, align 4
  %67 = getelementptr inbounds [512 x i8], ptr %6, i64 0, i64 0
  %68 = load ptr, ptr %4, align 8
  %69 = getelementptr inbounds nuw %struct.aiUVTransform, ptr %68, i32 0, i32 0
  %70 = getelementptr inbounds nuw %class.aiVector2t, ptr %69, i32 0, i32 0
  %71 = load float, ptr %70, align 8
  %72 = fpext float %71 to double
  %73 = load float, ptr %9, align 4
  %74 = fpext float %73 to double
  %75 = call i32 (ptr, i64, ptr, ...) @snprintf(ptr noundef %67, i64 noundef 512, ptr noundef @.str.3, double noundef %72, double noundef %74) #18
  br label %128

76:                                               ; preds = %53
  %77 = load ptr, ptr %4, align 8
  %78 = getelementptr inbounds nuw %"struct.Assimp::STransformVecInfo", ptr %77, i32 0, i32 2
  %79 = load i32, ptr %78, align 8
  %80 = icmp eq i32 2, %79
  br i1 %80, label %81, label %108

81:                                               ; preds = %76
  %82 = load i32, ptr %5, align 4
  %83 = icmp ne i32 1, %82
  br i1 %83, label %84, label %108

84:                                               ; preds = %81
  %85 = load i32, ptr %5, align 4
  %86 = srem i32 %85, 2
  %87 = icmp ne i32 %86, 0
  br i1 %87, label %88, label %91

88:                                               ; preds = %84
  %89 = load i32, ptr %5, align 4
  %90 = add nsw i32 %89, -1
  store i32 %90, ptr %5, align 4
  br label %91

91:                                               ; preds = %88, %84
  %92 = load ptr, ptr %4, align 8
  %93 = getelementptr inbounds nuw %struct.aiUVTransform, ptr %92, i32 0, i32 0
  %94 = getelementptr inbounds nuw %class.aiVector2t, ptr %93, i32 0, i32 0
  %95 = load float, ptr %94, align 8
  %96 = load i32, ptr %5, align 4
  %97 = sitofp i32 %96 to float
  %98 = fsub float %95, %97
  store float %98, ptr %9, align 4
  %99 = getelementptr inbounds [512 x i8], ptr %6, i64 0, i64 0
  %100 = load ptr, ptr %4, align 8
  %101 = getelementptr inbounds nuw %struct.aiUVTransform, ptr %100, i32 0, i32 0
  %102 = getelementptr inbounds nuw %class.aiVector2t, ptr %101, i32 0, i32 0
  %103 = load float, ptr %102, align 8
  %104 = fpext float %103 to double
  %105 = load float, ptr %9, align 4
  %106 = fpext float %105 to double
  %107 = call i32 (ptr, i64, ptr, ...) @snprintf(ptr noundef %99, i64 noundef 512, ptr noundef @.str.4, double noundef %104, double noundef %106) #18
  br label %127

108:                                              ; preds = %81, %76
  %109 = load ptr, ptr %4, align 8
  %110 = getelementptr inbounds nuw %"struct.Assimp::STransformVecInfo", ptr %109, i32 0, i32 2
  %111 = load i32, ptr %110, align 8
  %112 = icmp eq i32 1, %111
  br i1 %112, label %118, label %113

113:                                              ; preds = %108
  %114 = load ptr, ptr %4, align 8
  %115 = getelementptr inbounds nuw %"struct.Assimp::STransformVecInfo", ptr %114, i32 0, i32 2
  %116 = load i32, ptr %115, align 8
  %117 = icmp eq i32 3, %116
  br i1 %117, label %118, label %126

118:                                              ; preds = %113, %108
  %119 = getelementptr inbounds [512 x i8], ptr %6, i64 0, i64 0
  %120 = load ptr, ptr %4, align 8
  %121 = getelementptr inbounds nuw %struct.aiUVTransform, ptr %120, i32 0, i32 0
  %122 = getelementptr inbounds nuw %class.aiVector2t, ptr %121, i32 0, i32 0
  %123 = load float, ptr %122, align 8
  %124 = fpext float %123 to double
  %125 = call i32 (ptr, i64, ptr, ...) @snprintf(ptr noundef %119, i64 noundef 512, ptr noundef @.str.5, double noundef %124) #18
  store float 1.000000e+00, ptr %9, align 4
  br label %126

126:                                              ; preds = %118, %113
  br label %127

127:                                              ; preds = %126, %91
  br label %128

128:                                              ; preds = %127, %59
  %129 = getelementptr inbounds [512 x i8], ptr %6, i64 0, i64 0
  %130 = load i8, ptr %129, align 16
  %131 = icmp ne i8 %130, 0
  br i1 %131, label %132, label %138

132:                                              ; preds = %128
  %133 = call noundef ptr @_ZN6Assimp13DefaultLogger3getEv()
  call void @_ZN6Assimp6Logger4infoIJRA512_cEEEvDpOT_(ptr noundef nonnull align 8 dereferenceable(12) %133, ptr noundef nonnull align 1 dereferenceable(512) %6)
  %134 = load float, ptr %9, align 4
  %135 = load ptr, ptr %4, align 8
  %136 = getelementptr inbounds nuw %struct.aiUVTransform, ptr %135, i32 0, i32 0
  %137 = getelementptr inbounds nuw %class.aiVector2t, ptr %136, i32 0, i32 0
  store float %134, ptr %137, align 8
  br label %138

138:                                              ; preds = %132, %128
  call void @llvm.lifetime.end.p0(i64 4, ptr %9) #18
  br label %139

139:                                              ; preds = %138, %45
  %140 = load ptr, ptr %4, align 8
  %141 = getelementptr inbounds nuw %struct.aiUVTransform, ptr %140, i32 0, i32 0
  %142 = getelementptr inbounds nuw %class.aiVector2t, ptr %141, i32 0, i32 1
  %143 = load float, ptr %142, align 4
  %144 = fptosi float %143 to i32
  store i32 %144, ptr %5, align 4
  %145 = load i32, ptr %5, align 4
  %146 = icmp ne i32 %145, 0
  br i1 %146, label %147, label %233

147:                                              ; preds = %139
  call void @llvm.lifetime.start.p0(i64 4, ptr %10) #18
  store float 0.000000e+00, ptr %10, align 4
  %148 = getelementptr inbounds [512 x i8], ptr %6, i64 0, i64 0
  store i8 0, ptr %148, align 16
  %149 = load ptr, ptr %4, align 8
  %150 = getelementptr inbounds nuw %"struct.Assimp::STransformVecInfo", ptr %149, i32 0, i32 3
  %151 = load i32, ptr %150, align 4
  %152 = icmp eq i32 0, %151
  br i1 %152, label %153, label %170

153:                                              ; preds = %147
  %154 = load ptr, ptr %4, align 8
  %155 = getelementptr inbounds nuw %struct.aiUVTransform, ptr %154, i32 0, i32 0
  %156 = getelementptr inbounds nuw %class.aiVector2t, ptr %155, i32 0, i32 1
  %157 = load float, ptr %156, align 4
  %158 = load i32, ptr %5, align 4
  %159 = sitofp i32 %158 to float
  %160 = fsub float %157, %159
  store float %160, ptr %10, align 4
  %161 = getelementptr inbounds [512 x i8], ptr %6, i64 0, i64 0
  %162 = load ptr, ptr %4, align 8
  %163 = getelementptr inbounds nuw %struct.aiUVTransform, ptr %162, i32 0, i32 0
  %164 = getelementptr inbounds nuw %class.aiVector2t, ptr %163, i32 0, i32 1
  %165 = load float, ptr %164, align 4
  %166 = fpext float %165 to double
  %167 = load float, ptr %10, align 4
  %168 = fpext float %167 to double
  %169 = call i32 (ptr, i64, ptr, ...) @snprintf(ptr noundef %161, i64 noundef 512, ptr noundef @.str.6, double noundef %166, double noundef %168) #18
  br label %222

170:                                              ; preds = %147
  %171 = load ptr, ptr %4, align 8
  %172 = getelementptr inbounds nuw %"struct.Assimp::STransformVecInfo", ptr %171, i32 0, i32 3
  %173 = load i32, ptr %172, align 4
  %174 = icmp eq i32 2, %173
  br i1 %174, label %175, label %202

175:                                              ; preds = %170
  %176 = load i32, ptr %5, align 4
  %177 = icmp ne i32 1, %176
  br i1 %177, label %178, label %202

178:                                              ; preds = %175
  %179 = load i32, ptr %5, align 4
  %180 = srem i32 %179, 2
  %181 = icmp ne i32 %180, 0
  br i1 %181, label %182, label %185

182:                                              ; preds = %178
  %183 = load i32, ptr %5, align 4
  %184 = add nsw i32 %183, -1
  store i32 %184, ptr %5, align 4
  br label %185

185:                                              ; preds = %182, %178
  %186 = load ptr, ptr %4, align 8
  %187 = getelementptr inbounds nuw %struct.aiUVTransform, ptr %186, i32 0, i32 0
  %188 = getelementptr inbounds nuw %class.aiVector2t, ptr %187, i32 0, i32 0
  %189 = load float, ptr %188, align 8
  %190 = load i32, ptr %5, align 4
  %191 = sitofp i32 %190 to float
  %192 = fsub float %189, %191
  store float %192, ptr %10, align 4
  %193 = getelementptr inbounds [512 x i8], ptr %6, i64 0, i64 0
  %194 = load ptr, ptr %4, align 8
  %195 = getelementptr inbounds nuw %struct.aiUVTransform, ptr %194, i32 0, i32 0
  %196 = getelementptr inbounds nuw %class.aiVector2t, ptr %195, i32 0, i32 1
  %197 = load float, ptr %196, align 4
  %198 = fpext float %197 to double
  %199 = load float, ptr %10, align 4
  %200 = fpext float %199 to double
  %201 = call i32 (ptr, i64, ptr, ...) @snprintf(ptr noundef %193, i64 noundef 512, ptr noundef @.str.7, double noundef %198, double noundef %200) #18
  br label %221

202:                                              ; preds = %175, %170
  %203 = load ptr, ptr %4, align 8
  %204 = getelementptr inbounds nuw %"struct.Assimp::STransformVecInfo", ptr %203, i32 0, i32 3
  %205 = load i32, ptr %204, align 4
  %206 = icmp eq i32 1, %205
  br i1 %206, label %212, label %207

207:                                              ; preds = %202
  %208 = load ptr, ptr %4, align 8
  %209 = getelementptr inbounds nuw %"struct.Assimp::STransformVecInfo", ptr %208, i32 0, i32 3
  %210 = load i32, ptr %209, align 4
  %211 = icmp eq i32 3, %210
  br i1 %211, label %212, label %220

212:                                              ; preds = %207, %202
  %213 = getelementptr inbounds [512 x i8], ptr %6, i64 0, i64 0
  %214 = load ptr, ptr %4, align 8
  %215 = getelementptr inbounds nuw %struct.aiUVTransform, ptr %214, i32 0, i32 0
  %216 = getelementptr inbounds nuw %class.aiVector2t, ptr %215, i32 0, i32 1
  %217 = load float, ptr %216, align 4
  %218 = fpext float %217 to double
  %219 = call i32 (ptr, i64, ptr, ...) @snprintf(ptr noundef %213, i64 noundef 512, ptr noundef @.str.8, double noundef %218) #18
  store float 1.000000e+00, ptr %10, align 4
  br label %220

220:                                              ; preds = %212, %207
  br label %221

221:                                              ; preds = %220, %185
  br label %222

222:                                              ; preds = %221, %153
  %223 = getelementptr inbounds [512 x i8], ptr %6, i64 0, i64 0
  %224 = load i8, ptr %223, align 16
  %225 = icmp ne i8 %224, 0
  br i1 %225, label %226, label %232

226:                                              ; preds = %222
  %227 = call noundef ptr @_ZN6Assimp13DefaultLogger3getEv()
  call void @_ZN6Assimp6Logger4infoIJRA512_cEEEvDpOT_(ptr noundef nonnull align 8 dereferenceable(12) %227, ptr noundef nonnull align 1 dereferenceable(512) %6)
  %228 = load float, ptr %10, align 4
  %229 = load ptr, ptr %4, align 8
  %230 = getelementptr inbounds nuw %struct.aiUVTransform, ptr %229, i32 0, i32 0
  %231 = getelementptr inbounds nuw %class.aiVector2t, ptr %230, i32 0, i32 1
  store float %228, ptr %231, align 4
  br label %232

232:                                              ; preds = %226, %222
  call void @llvm.lifetime.end.p0(i64 4, ptr %10) #18
  br label %233

233:                                              ; preds = %232, %139
  store i32 0, ptr %8, align 4
  br label %234

234:                                              ; preds = %233, %41
  call void @llvm.lifetime.end.p0(i64 512, ptr %6) #18
  call void @llvm.lifetime.end.p0(i64 4, ptr %5) #18
  %235 = load i32, ptr %8, align 4
  switch i32 %235, label %237 [
    i32 0, label %236
    i32 1, label %236
  ]

236:                                              ; preds = %234, %234
  ret void

237:                                              ; preds = %234
  unreachable
}