; Function Attrs: mustprogress uwtable
define hidden void @_ZN6Assimp20TextureTransformStep21PreProcessUVTransformERNS_17STransformVecInfoE(ptr nonnull readnone align 8 captures(none) %0, ptr noundef nonnull align 8 dereferenceable(64) %1) local_unnamed_addr #3 align 2 {
  %3 = alloca [512 x i8], align 16
  %4 = alloca float, align 4
  call void @llvm.lifetime.start.p0(i64 512, ptr nonnull %3) #19
  call void @llvm.memset.p0.i64(ptr noundef nonnull align 16 dereferenceable(512) %3, i8 0, i64 512, i1 false)
  %5 = getelementptr inbounds nuw i8, ptr %1, i64 16
  %6 = load float, ptr %5, align 8
  %7 = fcmp une float %6, 0.000000e+00
  br i1 %7, label %8, label %21

8:                                                ; preds = %2
  call void @llvm.lifetime.start.p0(i64 4, ptr nonnull %4) #19
  %9 = fdiv float %6, 0x401921FB60000000
  %10 = fptosi float %9 to i32
  %.not62 = icmp eq i32 %10, 0
  br i1 %.not62, label %16, label %11

11:                                               ; preds = %8
  %12 = sitofp i32 %10 to float
  %13 = fneg float %12
  %14 = tail call float @llvm.fmuladd.f32(float %13, float 0x400921FB60000000, float %6)
  store float %14, ptr %4, align 4
  %15 = tail call noundef ptr @_ZN6Assimp13DefaultLogger3getEv()
  call void @_ZN6Assimp6Logger4infoIJRA29_KcRfRA23_S2_S5_EEEvDpOT_(ptr noundef nonnull align 8 dereferenceable(12) %15, ptr noundef nonnull align 1 dereferenceable(29) @.str.1, ptr noundef nonnull align 4 dereferenceable(4) %5, ptr noundef nonnull align 1 dereferenceable(23) @.str.2, ptr noundef nonnull align 4 dereferenceable(4) %4)
  %.pr = load float, ptr %4, align 4
  br label %16

16:                                               ; preds = %11, %8
  %17 = phi float [ %.pr, %11 ], [ %6, %8 ]
  %18 = fcmp olt float %17, 0.000000e+00
  %19 = fadd float %17, 0x402921FB60000000
  %20 = select i1 %18, float %19, float %17
  store float %20, ptr %5, align 8
  call void @llvm.lifetime.end.p0(i64 4, ptr nonnull %4) #19
  br label %83

21:                                               ; preds = %2
  %22 = load float, ptr %1, align 8
  %23 = fptosi float %22 to i32
  %.not = icmp eq i32 %23, 0
  br i1 %.not, label %51, label %24

24:                                               ; preds = %21
  %25 = getelementptr inbounds nuw i8, ptr %1, i64 24
  %26 = load i32, ptr %25, align 8
  %27 = icmp eq i32 %26, 0
  br i1 %27, label %28, label %34

28:                                               ; preds = %24
  %29 = sitofp i32 %23 to float
  %30 = fsub float %22, %29
  %31 = fpext float %22 to double
  %32 = fpext float %30 to double
  %33 = call i32 (ptr, i64, ptr, ...) @snprintf(ptr noundef nonnull dereferenceable(1) %3, i64 noundef 512, ptr noundef nonnull @.str.3, double noundef %31, double noundef %32) #19
  br label %47

34:                                               ; preds = %24
  %35 = icmp eq i32 %26, 2
  %36 = icmp ne i32 %23, 1
  %or.cond = and i1 %36, %35
  br i1 %or.cond, label %37, label %43

37:                                               ; preds = %34
  %spec.select = and i32 %23, -2
  %38 = sitofp i32 %spec.select to float
  %39 = fsub float %22, %38
  %40 = fpext float %22 to double
  %41 = fpext float %39 to double
  %42 = call i32 (ptr, i64, ptr, ...) @snprintf(ptr noundef nonnull dereferenceable(1) %3, i64 noundef 512, ptr noundef nonnull @.str.4, double noundef %40, double noundef %41) #19
  br label %47

43:                                               ; preds = %34
  switch i32 %26, label %47 [
    i32 1, label %44
    i32 3, label %44
  ]

44:                                               ; preds = %43, %43
  %45 = fpext float %22 to double
  %46 = call i32 (ptr, i64, ptr, ...) @snprintf(ptr noundef nonnull dereferenceable(1) %3, i64 noundef 512, ptr noundef nonnull @.str.5, double noundef %45) #19
  br label %47

47:                                               ; preds = %43, %37, %44, %28
  %.049 = phi float [ %30, %28 ], [ %39, %37 ], [ 1.000000e+00, %44 ], [ 0.000000e+00, %43 ]
  %48 = load i8, ptr %3, align 16
  %.not58 = icmp eq i8 %48, 0
  br i1 %.not58, label %51, label %49

49:                                               ; preds = %47
  %50 = tail call noundef ptr @_ZN6Assimp13DefaultLogger3getEv()
  call void @_ZN6Assimp6Logger4infoIJRA512_cEEEvDpOT_(ptr noundef nonnull align 8 dereferenceable(12) %50, ptr noundef nonnull align 1 dereferenceable(512) %3)
  store float %.049, ptr %1, align 8
  br label %51

51:                                               ; preds = %47, %49, %21
  %52 = getelementptr inbounds nuw i8, ptr %1, i64 4
  %53 = load float, ptr %52, align 4
  %54 = fptosi float %53 to i32
  %.not59 = icmp eq i32 %54, 0
  br i1 %.not59, label %83, label %55

55:                                               ; preds = %51
  store i8 0, ptr %3, align 16
  %56 = getelementptr inbounds nuw i8, ptr %1, i64 28
  %57 = load i32, ptr %56, align 4
  %58 = icmp eq i32 %57, 0
  br i1 %58, label %59, label %65

59:                                               ; preds = %55
  %60 = sitofp i32 %54 to float
  %61 = fsub float %53, %60
  %62 = fpext float %53 to double
  %63 = fpext float %61 to double
  %64 = call i32 (ptr, i64, ptr, ...) @snprintf(ptr noundef nonnull dereferenceable(1) %3, i64 noundef 512, ptr noundef nonnull @.str.6, double noundef %62, double noundef %63) #19
  br label %79

65:                                               ; preds = %55
  %66 = icmp eq i32 %57, 2
  %67 = icmp ne i32 %54, 1
  %or.cond3 = and i1 %67, %66
  br i1 %or.cond3, label %68, label %75

68:                                               ; preds = %65
  %spec.select63 = and i32 %54, -2
  %69 = load float, ptr %1, align 8
  %70 = sitofp i32 %spec.select63 to float
  %71 = fsub float %69, %70
  %72 = fpext float %53 to double
  %73 = fpext float %71 to double
  %74 = call i32 (ptr, i64, ptr, ...) @snprintf(ptr noundef nonnull dereferenceable(1) %3, i64 noundef 512, ptr noundef nonnull @.str.7, double noundef %72, double noundef %73) #19
  br label %79

75:                                               ; preds = %65
  switch i32 %57, label %79 [
    i32 1, label %76
    i32 3, label %76
  ]

76:                                               ; preds = %75, %75
  %77 = fpext float %53 to double
  %78 = call i32 (ptr, i64, ptr, ...) @snprintf(ptr noundef nonnull dereferenceable(1) %3, i64 noundef 512, ptr noundef nonnull @.str.8, double noundef %77) #19
  br label %79

79:                                               ; preds = %75, %68, %76, %59
  %.0 = phi float [ %61, %59 ], [ %71, %68 ], [ 1.000000e+00, %76 ], [ 0.000000e+00, %75 ]
  %80 = load i8, ptr %3, align 16
  %.not61 = icmp eq i8 %80, 0
  br i1 %.not61, label %83, label %81

81:                                               ; preds = %79
  %82 = call noundef ptr @_ZN6Assimp13DefaultLogger3getEv()
  call void @_ZN6Assimp6Logger4infoIJRA512_cEEEvDpOT_(ptr noundef nonnull align 8 dereferenceable(12) %82, ptr noundef nonnull align 1 dereferenceable(512) %3)
  store float %.0, ptr %52, align 4
  br label %83

83:                                               ; preds = %51, %81, %79, %16
  call void @llvm.lifetime.end.p0(i64 512, ptr nonnull %3) #19
  ret void
}